; Function Attrs: nofree norecurse nosync nounwind memory(argmem: read) uwtable
define range(i32 0, 2) i32 @Sim_UtilInfoIsEqual(ptr noundef readonly captures(none) %0, ptr noundef readonly captures(none) %1, i32 noundef %2) local_unnamed_addr #10 {
  %4 = icmp sgt i32 %2, 0
  br i1 %4, label %.lr.ph.preheader, label %._crit_edge

.lr.ph.preheader:                                 ; preds = %3
  %wide.trip.count = zext nneg i32 %2 to i64
  br label %.lr.ph

5:                                                ; preds = %.lr.ph
  %indvars.iv.next = add nuw nsw i64 %indvars.iv, 1
  %exitcond.not = icmp eq i64 %indvars.iv.next, %wide.trip.count
  br i1 %exitcond.not, label %._crit_edge, label %.lr.ph, !llvm.loop !82

.lr.ph:                                           ; preds = %.lr.ph.preheader, %5
  %indvars.iv = phi i64 [ 0, %.lr.ph.preheader ], [ %indvars.iv.next, %5 ]
  %6 = getelementptr inbounds nuw i32, ptr %0, i64 %indvars.iv
  %7 = load i32, ptr %6, align 4, !tbaa !14
  %8 = getelementptr inbounds nuw i32, ptr %1, i64 %indvars.iv
  %9 = load i32, ptr %8, align 4, !tbaa !14
  %.not = icmp eq i32 %7, %9
  br i1 %.not, label %5, label %._crit_edge

._crit_edge:                                      ; preds = %.lr.ph, %5, %3
  %.07 = phi i32 [ 1, %3 ], [ 1, %5 ], [ 0, %.lr.ph ]
  ret i32 %.07
}